target datalayout = "e-m:e-p270:32:32-p271:32:32-p272:64:64-i64:64-i128:128-f80:128-n8:16:32:64-S128"
target triple = "x86_64-pc-linux-gnu"

%"class.icu_77::UnicodeString" = type { %"class.icu_77::Replaceable", %"union.icu_77::UnicodeString::StackBufferOrFields" }
%"class.icu_77::Replaceable" = type { %"class.icu_77::UObject" }
%"class.icu_77::UObject" = type { ptr }
%"union.icu_77::UnicodeString::StackBufferOrFields" = type { %struct.anon.0, [32 x i8] }
%struct.anon.0 = type { i16, i32, i32, ptr }
%"class.icu_77::PtnSkeleton" = type <{ ptr, [16 x i32], %"class.icu_77::SkeletonFields", %"class.icu_77::SkeletonFields", i8, [7 x i8] }>
%"class.icu_77::SkeletonFields" = type { [16 x i8], [16 x i8] }
%"class.icu_77::LocalPointer.12" = type { %"class.icu_77::LocalPointerBase.13" }
%"class.icu_77::LocalPointerBase.13" = type { ptr }
%"class.icu_77::PatternMap" = type <{ ptr, [52 x ptr], i8, [7 x i8] }>
%"class.icu_77::PtnElem" = type { ptr, %"class.icu_77::UnicodeString", %"class.icu_77::LocalPointer.10", %"class.icu_77::UnicodeString", i8, %"class.icu_77::LocalPointer.12" }
%"class.icu_77::LocalPointer.10" = type { %"class.icu_77::LocalPointerBase.11" }
%"class.icu_77::LocalPointerBase.11" = type { ptr }

; Function Attrs: mustprogress nounwind uwtable
define noundef zeroext i16 @_ZNK6icu_7714SkeletonFields12getFirstCharEv(ptr noundef nonnull align 1 dereferenceable(32) %0) #0 align 2 {
  %2 = alloca i16, align 2
  %3 = alloca ptr, align 8
  %4 = alloca i32, align 4
  %5 = alloca i32, align 4
  store ptr %0, ptr %3, align 8, !tbaa !208
  %6 = load ptr, ptr %3, align 8
  call void @llvm.lifetime.start.p0(i64 4, ptr %4) #13
  store i32 0, ptr %4, align 4, !tbaa !14
  br label %7

7:                                                ; preds = %27, %1
  %8 = load i32, ptr %4, align 4, !tbaa !14
  %9 = icmp slt i32 %8, 16
  br i1 %9, label %11, label %10

10:                                               ; preds = %7
  store i32 2, ptr %5, align 4
  br label %30

11:                                               ; preds = %7
  %12 = getelementptr inbounds nuw %"class.icu_77::SkeletonFields", ptr %6, i32 0, i32 1
  %13 = load i32, ptr %4, align 4, !tbaa !14
  %14 = sext i32 %13 to i64
  %15 = getelementptr inbounds [16 x i8], ptr %12, i64 0, i64 %14
  %16 = load i8, ptr %15, align 1, !tbaa !62
  %17 = sext i8 %16 to i32
  %18 = icmp ne i32 %17, 0
  br i1 %18, label %19, label %26

19:                                               ; preds = %11
  %20 = getelementptr inbounds nuw %"class.icu_77::SkeletonFields", ptr %6, i32 0, i32 0
  %21 = load i32, ptr %4, align 4, !tbaa !14
  %22 = sext i32 %21 to i64
  %23 = getelementptr inbounds [16 x i8], ptr %20, i64 0, i64 %22
  %24 = load i8, ptr %23, align 1, !tbaa !62
  %25 = sext i8 %24 to i16
  store i16 %25, ptr %2, align 2
  store i32 1, ptr %5, align 4
  br label %30

26:                                               ; preds = %11
  br label %27

27:                                               ; preds = %26
  %28 = load i32, ptr %4, align 4, !tbaa !14
  %29 = add nsw i32 %28, 1
  store i32 %29, ptr %4, align 4, !tbaa !14
  br label %7, !llvm.loop !277

30:                                               ; preds = %19, %10
  call void @llvm.lifetime.end.p0(i64 4, ptr %4) #13
  %31 = load i32, ptr %5, align 4
  switch i32 %31, label %35 [
    i32 2, label %32
    i32 1, label %33
  ]

32:                                               ; preds = %30
  store i16 0, ptr %2, align 2
  br label %33

33:                                               ; preds = %32, %30
  %34 = load i16, ptr %2, align 2
  ret i16 %34

35:                                               ; preds = %30
  unreachable
}

; Function Attrs: mustprogress nounwind uwtable
define linkonce_odr noundef ptr @_ZNK6icu_7716LocalPointerBaseINS_7PtnElemEE8getAliasEv(ptr noundef nonnull align 8 dereferenceable(8) %0) #0 comdat align 2 {
  %2 = alloca ptr, align 8
  store ptr %0, ptr %2, align 8, !tbaa !254
  %3 = load ptr, ptr %2, align 8
  %4 = getelementptr inbounds nuw %"class.icu_77::LocalPointerBase.13", ptr %3, i32 0, i32 0
  %5 = load ptr, ptr %4, align 8, !tbaa !256
  ret ptr %5
}

; Function Attrs: mustprogress nounwind uwtable
define linkonce_odr noundef ptr @_ZNK6icu_7716LocalPointerBaseINS_11PtnSkeletonEE8getAliasEv(ptr noundef nonnull align 8 dereferenceable(8) %0) #0 comdat align 2 {
  %2 = alloca ptr, align 8
  store ptr %0, ptr %2, align 8, !tbaa !251
  %3 = load ptr, ptr %2, align 8
  %4 = getelementptr inbounds nuw %"class.icu_77::LocalPointerBase.11", ptr %3, i32 0, i32 0
  %5 = load ptr, ptr %4, align 8, !tbaa !253
  ret ptr %5
}

; Function Attrs: inlinehint mustprogress nounwind uwtable
define linkonce_odr noundef zeroext i1 @_ZNK6icu_7714SkeletonFieldseqERKS0_(ptr noundef nonnull align 1 dereferenceable(32) %0, ptr noundef nonnull align 1 dereferenceable(32) %1) #2 comdat align 2 {
  %3 = alloca ptr, align 8
  %4 = alloca ptr, align 8
  store ptr %0, ptr %3, align 8, !tbaa !208
  store ptr %1, ptr %4, align 8, !tbaa !208
  %5 = load ptr, ptr %3, align 8
  %6 = getelementptr inbounds nuw %"class.icu_77::SkeletonFields", ptr %5, i32 0, i32 0
  %7 = getelementptr inbounds [16 x i8], ptr %6, i64 0, i64 0
  %8 = load ptr, ptr %4, align 8, !tbaa !208
  %9 = getelementptr inbounds nuw %"class.icu_77::SkeletonFields", ptr %8, i32 0, i32 0
  %10 = getelementptr inbounds [16 x i8], ptr %9, i64 0, i64 0
  %11 = call i32 @memcmp(ptr noundef %7, ptr noundef %10, i64 noundef 16) #18
  %12 = icmp eq i32 %11, 0
  br i1 %12, label %13, label %21

13:                                               ; preds = %2
  %14 = getelementptr inbounds nuw %"class.icu_77::SkeletonFields", ptr %5, i32 0, i32 1
  %15 = getelementptr inbounds [16 x i8], ptr %14, i64 0, i64 0
  %16 = load ptr, ptr %4, align 8, !tbaa !208
  %17 = getelementptr inbounds nuw %"class.icu_77::SkeletonFields", ptr %16, i32 0, i32 1
  %18 = getelementptr inbounds [16 x i8], ptr %17, i64 0, i64 0
  %19 = call i32 @memcmp(ptr noundef %15, ptr noundef %18, i64 noundef 16) #18
  %20 = icmp eq i32 %19, 0
  br label %21

21:                                               ; preds = %13, %2
  %22 = phi i1 [ false, %2 ], [ %20, %13 ]
  ret i1 %22
}

; Function Attrs: mustprogress nounwind uwtable
define linkonce_odr noundef ptr @_ZNK6icu_7716LocalPointerBaseINS_11PtnSkeletonEEptEv(ptr noundef nonnull align 8 dereferenceable(8) %0) #0 comdat align 2 {
  %2 = alloca ptr, align 8
  store ptr %0, ptr %2, align 8, !tbaa !251
  %3 = load ptr, ptr %2, align 8
  %4 = getelementptr inbounds nuw %"class.icu_77::LocalPointerBase.11", ptr %3, i32 0, i32 0
  %5 = load ptr, ptr %4, align 8, !tbaa !253
  ret ptr %5
}

; Function Attrs: mustprogress nounwind uwtable
define noundef ptr @_ZNK6icu_7710PatternMap9getHeaderEDs(ptr noundef nonnull align 8 dereferenceable(425) %0, i16 noundef zeroext %1) #0 align 2 {
  %3 = alloca ptr, align 8
  %4 = alloca ptr, align 8
  %5 = alloca i16, align 2
  %6 = alloca ptr, align 8
  %7 = alloca i32, align 4
  store ptr %0, ptr %4, align 8, !tbaa !74
  store i16 %1, ptr %5, align 2, !tbaa !104
  %8 = load ptr, ptr %4, align 8
  call void @llvm.lifetime.start.p0(i64 8, ptr %6) #13
  %9 = load i16, ptr %5, align 2, !tbaa !104
  %10 = zext i16 %9 to i32
  %11 = icmp sge i32 %10, 65
  br i1 %11, label %12, label %24

12:                                               ; preds = %2
  %13 = load i16, ptr %5, align 2, !tbaa !104
  %14 = zext i16 %13 to i32
  %15 = icmp sle i32 %14, 90
  br i1 %15, label %16, label %24

16:                                               ; preds = %12
  %17 = getelementptr inbounds nuw %"class.icu_77::PatternMap", ptr %8, i32 0, i32 1
  %18 = load i16, ptr %5, align 2, !tbaa !104
  %19 = zext i16 %18 to i32
  %20 = sub nsw i32 %19, 65
  %21 = sext i32 %20 to i64
  %22 = getelementptr inbounds [52 x ptr], ptr %17, i64 0, i64 %21
  %23 = load ptr, ptr %22, align 8, !tbaa !77
  store ptr %23, ptr %6, align 8, !tbaa !77
  br label %43

24:                                               ; preds = %12, %2
  %25 = load i16, ptr %5, align 2, !tbaa !104
  %26 = zext i16 %25 to i32
  %27 = icmp sge i32 %26, 97
  br i1 %27, label %28, label %41

28:                                               ; preds = %24
  %29 = load i16, ptr %5, align 2, !tbaa !104
  %30 = zext i16 %29 to i32
  %31 = icmp sle i32 %30, 122
  br i1 %31, label %32, label %41

32:                                               ; preds = %28
  %33 = getelementptr inbounds nuw %"class.icu_77::PatternMap", ptr %8, i32 0, i32 1
  %34 = load i16, ptr %5, align 2, !tbaa !104
  %35 = zext i16 %34 to i32
  %36 = add nsw i32 26, %35
  %37 = sub nsw i32 %36, 97
  %38 = sext i32 %37 to i64
  %39 = getelementptr inbounds [52 x ptr], ptr %33, i64 0, i64 %38
  %40 = load ptr, ptr %39, align 8, !tbaa !77
  store ptr %40, ptr %6, align 8, !tbaa !77
  br label %42

41:                                               ; preds = %28, %24
  store ptr null, ptr %3, align 8
  store i32 1, ptr %7, align 4
  br label %45

42:                                               ; preds = %32
  br label %43

43:                                               ; preds = %42, %16
  %44 = load ptr, ptr %6, align 8, !tbaa !77
  store ptr %44, ptr %3, align 8
  store i32 1, ptr %7, align 4
  br label %45

45:                                               ; preds = %43, %41
  call void @llvm.lifetime.end.p0(i64 8, ptr %6) #13
  %46 = load ptr, ptr %3, align 8
  ret ptr %46
}

; Function Attrs: mustprogress nounwind uwtable
define noundef zeroext i16 @_ZNK6icu_7711PtnSkeleton12getFirstCharEv(ptr noundef nonnull align 8 dereferenceable(137) %0) #0 align 2 {
  %2 = alloca ptr, align 8
  store ptr %0, ptr %2, align 8, !tbaa !72
  %3 = load ptr, ptr %2, align 8
  %4 = getelementptr inbounds nuw %"class.icu_77::PtnSkeleton", ptr %3, i32 0, i32 3
  %5 = call noundef zeroext i16 @_ZNK6icu_7714SkeletonFields12getFirstCharEv(ptr noundef nonnull align 1 dereferenceable(32) %4)
  ret i16 %5
}

; Function Attrs: mustprogress uwtable
define noundef ptr @_ZNK6icu_7710PatternMap22getPatternFromSkeletonERKNS_11PtnSkeletonEPPS2_(ptr noundef nonnull align 8 dereferenceable(425) %0, ptr noundef nonnull align 8 dereferenceable(137) %1, ptr noundef %2) #1 align 2 {
  %4 = alloca ptr, align 8
  %5 = alloca ptr, align 8
  %6 = alloca ptr, align 8
  %7 = alloca ptr, align 8
  %8 = alloca ptr, align 8
  %9 = alloca i16, align 2
  %10 = alloca i32, align 4
  %11 = alloca i8, align 1
  store ptr %0, ptr %5, align 8, !tbaa !74
  store ptr %1, ptr %6, align 8, !tbaa !72
  store ptr %2, ptr %7, align 8, !tbaa !200
  %12 = load ptr, ptr %5, align 8
  call void @llvm.lifetime.start.p0(i64 8, ptr %8) #13
  %13 = load ptr, ptr %7, align 8, !tbaa !200
  %14 = icmp ne ptr %13, null
  br i1 %14, label %15, label %17

15:                                               ; preds = %3
  %16 = load ptr, ptr %7, align 8, !tbaa !200
  store ptr null, ptr %16, align 8, !tbaa !72
  br label %17

17:                                               ; preds = %15, %3
  call void @llvm.lifetime.start.p0(i64 2, ptr %9) #13
  %18 = load ptr, ptr %6, align 8, !tbaa !72
  %19 = call noundef zeroext i16 @_ZNK6icu_7711PtnSkeleton12getFirstCharEv(ptr noundef nonnull align 8 dereferenceable(137) %18)
  store i16 %19, ptr %9, align 2, !tbaa !104
  %20 = load i16, ptr %9, align 2, !tbaa !104
  %21 = call noundef ptr @_ZNK6icu_7710PatternMap9getHeaderEDs(ptr noundef nonnull align 8 dereferenceable(425) %12, i16 noundef zeroext %20)
  store ptr %21, ptr %8, align 8, !tbaa !77
  %22 = icmp eq ptr %21, null
  br i1 %22, label %23, label %24

23:                                               ; preds = %17
  store ptr null, ptr %4, align 8
  store i32 1, ptr %10, align 4
  br label %76

24:                                               ; preds = %17
  br label %25

25:                                               ; preds = %72, %24
  call void @llvm.lifetime.start.p0(i64 1, ptr %11) #13
  %26 = load ptr, ptr %7, align 8, !tbaa !200
  %27 = icmp ne ptr %26, null
  br i1 %27, label %28, label %37

28:                                               ; preds = %25
  %29 = load ptr, ptr %8, align 8, !tbaa !77
  %30 = getelementptr inbounds nuw %"class.icu_77::PtnElem", ptr %29, i32 0, i32 2
  %31 = call noundef ptr @_ZNK6icu_7716LocalPointerBaseINS_11PtnSkeletonEEptEv(ptr noundef nonnull align 8 dereferenceable(8) %30)
  %32 = getelementptr inbounds nuw %"class.icu_77::PtnSkeleton", ptr %31, i32 0, i32 2
  %33 = load ptr, ptr %6, align 8, !tbaa !72
  %34 = getelementptr inbounds nuw %"class.icu_77::PtnSkeleton", ptr %33, i32 0, i32 2
  %35 = call noundef zeroext i1 @_ZNK6icu_7714SkeletonFieldseqERKS0_(ptr noundef nonnull align 1 dereferenceable(32) %32, ptr noundef nonnull align 1 dereferenceable(32) %34)
  %36 = zext i1 %35 to i8
  store i8 %36, ptr %11, align 1, !tbaa !62
  br label %46

37:                                               ; preds = %25
  %38 = load ptr, ptr %8, align 8, !tbaa !77
  %39 = getelementptr inbounds nuw %"class.icu_77::PtnElem", ptr %38, i32 0, i32 2
  %40 = call noundef ptr @_ZNK6icu_7716LocalPointerBaseINS_11PtnSkeletonEEptEv(ptr noundef nonnull align 8 dereferenceable(8) %39)
  %41 = getelementptr inbounds nuw %"class.icu_77::PtnSkeleton", ptr %40, i32 0, i32 3
  %42 = load ptr, ptr %6, align 8, !tbaa !72
  %43 = getelementptr inbounds nuw %"class.icu_77::PtnSkeleton", ptr %42, i32 0, i32 3
  %44 = call noundef zeroext i1 @_ZNK6icu_7714SkeletonFieldseqERKS0_(ptr noundef nonnull align 1 dereferenceable(32) %41, ptr noundef nonnull align 1 dereferenceable(32) %43)
  %45 = zext i1 %44 to i8
  store i8 %45, ptr %11, align 1, !tbaa !62
  br label %46

46:                                               ; preds = %37, %28
  %47 = load i8, ptr %11, align 1, !tbaa !62
  %48 = icmp ne i8 %47, 0
  br i1 %48, label %49, label %65

49:                                               ; preds = %46
  %50 = load ptr, ptr %7, align 8, !tbaa !200
  %51 = icmp ne ptr %50, null
  br i1 %51, label %52, label %62

52:                                               ; preds = %49
  %53 = load ptr, ptr %8, align 8, !tbaa !77
  %54 = getelementptr inbounds nuw %"class.icu_77::PtnElem", ptr %53, i32 0, i32 4
  %55 = load i8, ptr %54, align 8, !tbaa !79
  %56 = icmp ne i8 %55, 0
  br i1 %56, label %57, label %62

57:                                               ; preds = %52
  %58 = load ptr, ptr %8, align 8, !tbaa !77
  %59 = getelementptr inbounds nuw %"class.icu_77::PtnElem", ptr %58, i32 0, i32 2
  %60 = call noundef ptr @_ZNK6icu_7716LocalPointerBaseINS_11PtnSkeletonEE8getAliasEv(ptr noundef nonnull align 8 dereferenceable(8) %59)
  %61 = load ptr, ptr %7, align 8, !tbaa !200
  store ptr %60, ptr %61, align 8, !tbaa !72
  br label %62

62:                                               ; preds = %57, %52, %49
  %63 = load ptr, ptr %8, align 8, !tbaa !77
  %64 = getelementptr inbounds nuw %"class.icu_77::PtnElem", ptr %63, i32 0, i32 3
  store ptr %64, ptr %4, align 8
  store i32 1, ptr %10, align 4
  br label %69

65:                                               ; preds = %46
  %66 = load ptr, ptr %8, align 8, !tbaa !77
  %67 = getelementptr inbounds nuw %"class.icu_77::PtnElem", ptr %66, i32 0, i32 5
  %68 = call noundef ptr @_ZNK6icu_7716LocalPointerBaseINS_7PtnElemEE8getAliasEv(ptr noundef nonnull align 8 dereferenceable(8) %67)
  store ptr %68, ptr %8, align 8, !tbaa !77
  store i32 0, ptr %10, align 4
  br label %69

69:                                               ; preds = %65, %62
  call void @llvm.lifetime.end.p0(i64 1, ptr %11) #13
  %70 = load i32, ptr %10, align 4
  switch i32 %70, label %76 [
    i32 0, label %71
  ]

71:                                               ; preds = %69
  br label %72

72:                                               ; preds = %71
  %73 = load ptr, ptr %8, align 8, !tbaa !77
  %74 = icmp ne ptr %73, null
  br i1 %74, label %25, label %75, !llvm.loop !224

75:                                               ; preds = %72
  store ptr null, ptr %4, align 8
  store i32 1, ptr %10, align 4
  br label %76

76:                                               ; preds = %75, %69, %23
  call void @llvm.lifetime.end.p0(i64 2, ptr %9) #13
  call void @llvm.lifetime.end.p0(i64 8, ptr %8) #13
  %77 = load ptr, ptr %4, align 8
  ret ptr %77
}