; Function Attrs: mustprogress nofree nounwind memory(read, argmem: readwrite, inaccessiblemem: none) uwtable
define noundef ptr @_ZNK6icu_7710PatternMap22getPatternFromSkeletonERKNS_11PtnSkeletonEPPS2_(ptr noundef nonnull readonly align 8 captures(none) dereferenceable(425) %0, ptr noundef nonnull readonly align 8 captures(none) dereferenceable(137) %1, ptr noundef writeonly %2) local_unnamed_addr #20 align 2 {
  %.not = icmp eq ptr %2, null
  br i1 %.not, label %5, label %4

4:                                                ; preds = %3
  store ptr null, ptr %2, align 8, !tbaa !131
  br label %5

5:                                                ; preds = %4, %3
  %6 = getelementptr inbounds nuw i8, ptr %1, i64 104
  %7 = getelementptr inbounds nuw i8, ptr %1, i64 120
  br label %9

8:                                                ; preds = %9
  %indvars.iv.next.i.i = add nuw nsw i64 %indvars.iv.i.i, 1
  %exitcond.i.i = icmp eq i64 %indvars.iv.next.i.i, 16
  br i1 %exitcond.i.i, label %_ZNK6icu_7710PatternMap9getHeaderEDs.exit.thread, label %9, !llvm.loop !118

9:                                                ; preds = %8, %5
  %indvars.iv.i.i = phi i64 [ 0, %5 ], [ %indvars.iv.next.i.i, %8 ]
  %10 = getelementptr inbounds nuw [16 x i8], ptr %7, i64 0, i64 %indvars.iv.i.i
  %11 = load i8, ptr %10, align 1, !tbaa !17
  %.not.i.i = icmp eq i8 %11, 0
  br i1 %.not.i.i, label %8, label %_ZNK6icu_7711PtnSkeleton12getFirstCharEv.exit

_ZNK6icu_7711PtnSkeleton12getFirstCharEv.exit:    ; preds = %9
  %12 = getelementptr inbounds nuw [16 x i8], ptr %6, i64 0, i64 %indvars.iv.i.i
  %13 = load i8, ptr %12, align 1, !tbaa !17
  %14 = sext i8 %13 to i16
  %15 = zext i16 %14 to i64
  %16 = add nsw i16 %14, -65
  %or.cond.i = icmp ult i16 %16, 26
  br i1 %or.cond.i, label %_ZNK6icu_7710PatternMap9getHeaderEDs.exit, label %17

17:                                               ; preds = %_ZNK6icu_7711PtnSkeleton12getFirstCharEv.exit
  %18 = add nsw i16 %14, -97
  %or.cond5.i = icmp ult i16 %18, 26
  br i1 %or.cond5.i, label %_ZNK6icu_7710PatternMap9getHeaderEDs.exit, label %_ZNK6icu_7710PatternMap9getHeaderEDs.exit.thread

_ZNK6icu_7710PatternMap9getHeaderEDs.exit:        ; preds = %_ZNK6icu_7711PtnSkeleton12getFirstCharEv.exit, %17
  %.sink17.i = phi i64 [ 4294967231, %_ZNK6icu_7711PtnSkeleton12getFirstCharEv.exit ], [ 4294967225, %17 ]
  %19 = getelementptr inbounds nuw i8, ptr %0, i64 8
  %20 = add nuw nsw i64 %.sink17.i, %15
  %21 = and i64 %20, 4294967295
  %22 = getelementptr inbounds nuw [52 x ptr], ptr %19, i64 0, i64 %21
  %.0.i = load ptr, ptr %22, align 8, !tbaa !53
  %23 = icmp eq ptr %.0.i, null
  br i1 %23, label %_ZNK6icu_7710PatternMap9getHeaderEDs.exit.thread, label %.preheader

.preheader:                                       ; preds = %_ZNK6icu_7710PatternMap9getHeaderEDs.exit
  %24 = getelementptr inbounds nuw i8, ptr %1, i64 72
  %25 = getelementptr inbounds nuw i8, ptr %1, i64 88
  br i1 %.not, label %.preheader.split.us, label %.preheader.split

.preheader.split.us:                              ; preds = %.preheader, %_ZNK6icu_7714SkeletonFieldseqERKS0_.exit.thread.us
  %.021.us = phi ptr [ %33, %_ZNK6icu_7714SkeletonFieldseqERKS0_.exit.thread.us ], [ %.0.i, %.preheader ]
  %26 = getelementptr inbounds nuw i8, ptr %.021.us, i64 72
  %27 = load ptr, ptr %26, align 8, !tbaa !55
  %28 = getelementptr inbounds nuw i8, ptr %27, i64 104
  %bcmp.i28.us = tail call i32 @bcmp(ptr noundef nonnull align 1 dereferenceable(32) %28, ptr noundef nonnull align 1 dereferenceable(32) %6, i64 16)
  %29 = icmp eq i32 %bcmp.i28.us, 0
  br i1 %29, label %_ZNK6icu_7714SkeletonFieldseqERKS0_.exit.us, label %_ZNK6icu_7714SkeletonFieldseqERKS0_.exit.thread.us

_ZNK6icu_7714SkeletonFieldseqERKS0_.exit.us:      ; preds = %.preheader.split.us
  %30 = getelementptr inbounds nuw i8, ptr %27, i64 120
  %bcmp3.i29.us = tail call i32 @bcmp(ptr noundef nonnull dereferenceable(16) %30, ptr noundef nonnull dereferenceable(16) %7, i64 16)
  %31 = icmp eq i32 %bcmp3.i29.us, 0
  br i1 %31, label %.thread44, label %_ZNK6icu_7714SkeletonFieldseqERKS0_.exit.thread.us

_ZNK6icu_7714SkeletonFieldseqERKS0_.exit.thread.us: ; preds = %_ZNK6icu_7714SkeletonFieldseqERKS0_.exit.us, %.preheader.split.us
  %32 = getelementptr inbounds nuw i8, ptr %.021.us, i64 152
  %33 = load ptr, ptr %32, align 8, !tbaa !63
  %.not27.us = icmp eq ptr %33, null
  br i1 %.not27.us, label %_ZNK6icu_7710PatternMap9getHeaderEDs.exit.thread, label %.preheader.split.us, !llvm.loop !119

.preheader.split:                                 ; preds = %.preheader, %_ZNK6icu_7714SkeletonFieldseqERKS0_.exit.thread
  %.021 = phi ptr [ %47, %_ZNK6icu_7714SkeletonFieldseqERKS0_.exit.thread ], [ %.0.i, %.preheader ]
  %34 = getelementptr inbounds nuw i8, ptr %.021, i64 72
  %35 = load ptr, ptr %34, align 8, !tbaa !55
  %36 = getelementptr inbounds nuw i8, ptr %35, i64 72
  %bcmp.i = tail call i32 @bcmp(ptr noundef nonnull align 1 dereferenceable(32) %36, ptr noundef nonnull align 1 dereferenceable(32) %24, i64 16)
  %37 = icmp eq i32 %bcmp.i, 0
  br i1 %37, label %38, label %_ZNK6icu_7714SkeletonFieldseqERKS0_.exit.thread

38:                                               ; preds = %.preheader.split
  %39 = getelementptr inbounds nuw i8, ptr %35, i64 88
  %bcmp3.i = tail call i32 @bcmp(ptr noundef nonnull dereferenceable(16) %39, ptr noundef nonnull dereferenceable(16) %25, i64 16)
  %40 = icmp eq i32 %bcmp3.i, 0
  br i1 %40, label %41, label %_ZNK6icu_7714SkeletonFieldseqERKS0_.exit.thread

41:                                               ; preds = %38
  %42 = getelementptr inbounds nuw i8, ptr %.021, i64 144
  %43 = load i8, ptr %42, align 8, !tbaa !58
  %.not26 = icmp eq i8 %43, 0
  br i1 %.not26, label %.thread44, label %44

44:                                               ; preds = %41
  store ptr %35, ptr %2, align 8, !tbaa !131
  br label %.thread44

.thread44:                                        ; preds = %_ZNK6icu_7714SkeletonFieldseqERKS0_.exit.us, %41, %44
  %.02151 = phi ptr [ %.021, %41 ], [ %.021, %44 ], [ %.021.us, %_ZNK6icu_7714SkeletonFieldseqERKS0_.exit.us ]
  %45 = getelementptr inbounds nuw i8, ptr %.02151, i64 80
  br label %_ZNK6icu_7710PatternMap9getHeaderEDs.exit.thread

_ZNK6icu_7714SkeletonFieldseqERKS0_.exit.thread:  ; preds = %.preheader.split, %38
  %46 = getelementptr inbounds nuw i8, ptr %.021, i64 152
  %47 = load ptr, ptr %46, align 8, !tbaa !63
  %.not27 = icmp eq ptr %47, null
  br i1 %.not27, label %_ZNK6icu_7710PatternMap9getHeaderEDs.exit.thread, label %.preheader.split, !llvm.loop !119

_ZNK6icu_7710PatternMap9getHeaderEDs.exit.thread: ; preds = %8, %_ZNK6icu_7714SkeletonFieldseqERKS0_.exit.thread, %_ZNK6icu_7714SkeletonFieldseqERKS0_.exit.thread.us, %17, %.thread44, %_ZNK6icu_7710PatternMap9getHeaderEDs.exit
  %.020 = phi ptr [ null, %_ZNK6icu_7710PatternMap9getHeaderEDs.exit ], [ %45, %.thread44 ], [ null, %17 ], [ null, %_ZNK6icu_7714SkeletonFieldseqERKS0_.exit.thread.us ], [ null, %_ZNK6icu_7714SkeletonFieldseqERKS0_.exit.thread ], [ null, %8 ]
  ret ptr %.020
}